target datalayout = "e-m:e-p270:32:32-p271:32:32-p272:64:64-i64:64-i128:128-f80:128-n8:16:32:64-S128"
target triple = "x86_64-pc-linux-gnu"

%struct.Tree_Sto_t_ = type { i32, i32, [16 x i32], [16 x i32], [16 x i32], [16 x i32], [16 x %struct.Vec_Int_t_], ptr }
%struct.Vec_Int_t_ = type { i32, i32, ptr }

@.str.14 = private unnamed_addr constant [43 x i8] c"Finished dumping tree into AIG file \22%s\22.\0A\00", align 1

; Function Attrs: nounwind uwtable
define ptr @Gia_ManBuildMuxes(ptr noundef %0, ptr noundef %1) #0 {
  %3 = alloca ptr, align 8
  %4 = alloca ptr, align 8
  store ptr %0, ptr %3, align 8, !tbaa !3
  store ptr %1, ptr %4, align 8, !tbaa !44
  %5 = load ptr, ptr %3, align 8, !tbaa !3
  %6 = getelementptr inbounds nuw %struct.Tree_Sto_t_, ptr %5, i32 0, i32 7
  %7 = load ptr, ptr %6, align 8, !tbaa !14
  %8 = load ptr, ptr %3, align 8, !tbaa !3
  %9 = getelementptr inbounds nuw %struct.Tree_Sto_t_, ptr %8, i32 0, i32 0
  %10 = load i32, ptr %9, align 8, !tbaa !17
  %11 = load ptr, ptr %3, align 8, !tbaa !3
  %12 = getelementptr inbounds nuw %struct.Tree_Sto_t_, ptr %11, i32 0, i32 1
  %13 = load i32, ptr %12, align 4, !tbaa !16
  %14 = load ptr, ptr %4, align 8, !tbaa !44
  %15 = icmp ne ptr %14, null
  br i1 %15, label %16, label %18

16:                                               ; preds = %2
  %17 = load ptr, ptr %4, align 8, !tbaa !44
  br label %22

18:                                               ; preds = %2
  %19 = load ptr, ptr %3, align 8, !tbaa !3
  %20 = getelementptr inbounds nuw %struct.Tree_Sto_t_, ptr %19, i32 0, i32 4
  %21 = getelementptr inbounds [16 x i32], ptr %20, i64 0, i64 0
  br label %22

22:                                               ; preds = %18, %16
  %23 = phi ptr [ %17, %16 ], [ %21, %18 ]
  %24 = call ptr @Gia_ManBuildMuxesTest(ptr noundef %7, i32 noundef %10, i32 noundef %13, ptr noundef %23)
  ret ptr %24
}

; Function Attrs: nounwind uwtable
define void @Gia_ManDumpMuxes(ptr noundef %0, ptr noundef %1, ptr noundef %2) #0 {
  %4 = alloca ptr, align 8
  %5 = alloca ptr, align 8
  %6 = alloca ptr, align 8
  %7 = alloca ptr, align 8
  store ptr %0, ptr %4, align 8, !tbaa !3
  store ptr %1, ptr %5, align 8, !tbaa !64
  store ptr %2, ptr %6, align 8, !tbaa !44
  call void @llvm.lifetime.start.p0(i64 8, ptr %7) #13
  %8 = load ptr, ptr %4, align 8, !tbaa !3
  %9 = load ptr, ptr %6, align 8, !tbaa !44
  %10 = call ptr @Gia_ManBuildMuxes(ptr noundef %8, ptr noundef %9)
  store ptr %10, ptr %7, align 8, !tbaa !94
  %11 = load ptr, ptr %7, align 8, !tbaa !94
  %12 = load ptr, ptr %5, align 8, !tbaa !64
  call void @Gia_AigerWrite(ptr noundef %11, ptr noundef %12, i32 noundef 0, i32 noundef 0, i32 noundef 0)
  %13 = load ptr, ptr %7, align 8, !tbaa !94
  call void @Gia_ManStop(ptr noundef %13)
  %14 = load ptr, ptr %5, align 8, !tbaa !64
  %15 = call i32 (ptr, ...) @printf(ptr noundef @.str.14, ptr noundef %14)
  call void @llvm.lifetime.end.p0(i64 8, ptr %7) #13
  ret void
}