; Function Attrs: nounwind uwtable
define void @Gia_ManDumpMuxes(ptr noundef %0, ptr noundef %1, ptr noundef %2) local_unnamed_addr #0 {
  %4 = getelementptr inbounds nuw i8, ptr %0, i64 520
  %5 = load ptr, ptr %4, align 8, !tbaa !12
  %6 = load i32, ptr %0, align 8, !tbaa !15
  %7 = getelementptr inbounds nuw i8, ptr %0, i64 4
  %8 = load i32, ptr %7, align 4, !tbaa !14
  %.not.i = icmp eq ptr %2, null
  %9 = getelementptr inbounds nuw i8, ptr %0, i64 136
  %10 = select i1 %.not.i, ptr %9, ptr %2
  %11 = tail call ptr @Gia_ManBuildMuxesTest(ptr noundef %5, i32 noundef %6, i32 noundef %8, ptr noundef nonnull %10)
  tail call void @Gia_AigerWrite(ptr noundef %11, ptr noundef %1, i32 noundef 0, i32 noundef 0, i32 noundef 0) #24
  tail call void @Gia_ManStop(ptr noundef %11) #24
  %12 = tail call i32 (ptr, ...) @printf(ptr noundef nonnull dereferenceable(1) @.str.14, ptr noundef %1)
  ret void
}